target datalayout = "e-m:e-p270:32:32-p271:32:32-p272:64:64-i64:64-i128:128-f80:128-n8:16:32:64-S128"
target triple = "x86_64-pc-linux-gnu"

%"class.google::protobuf::internal::SymbolBase" = type { i8 }
%"class.std::__cxx11::basic_string" = type { %"struct.std::__cxx11::basic_string<char>::_Alloc_hider", i64, %union.anon }
%"struct.std::__cxx11::basic_string<char>::_Alloc_hider" = type { ptr }
%union.anon = type { i64, [8 x i8] }
%"class.google::protobuf::Reflection" = type <{ ptr, %"struct.google::protobuf::internal::ReflectionSchema", ptr, ptr, i32, [4 x i8] }>
%"struct.google::protobuf::internal::ReflectionSchema" = type { ptr, ptr, ptr, i32, i32, i32, i32, i32, i32, ptr, i32 }
%"class.google::protobuf::Descriptor" = type { %"class.google::protobuf::internal::SymbolBase", i8, i16, i32, ptr, ptr, ptr, ptr, ptr, ptr, ptr, ptr, ptr, ptr, ptr, ptr, i32, i32, i32, i32, i32, i32, i32, i32 }
%"class.google::protobuf::FieldDescriptor" = type { %"class.google::protobuf::internal::SymbolBase", i8, i8, i8, i32, ptr, ptr, ptr, ptr, %union.anon.4, %union.anon.5, ptr, %union.anon.6 }
%union.anon.4 = type { ptr }
%union.anon.5 = type { ptr }
%union.anon.6 = type { i64 }
%"class.google::protobuf::internal::LogMessage" = type { i32, ptr, i32, %"class.std::__cxx11::basic_string" }
%"class.google::protobuf::internal::LogFinisher" = type { i8 }
%"class.google::protobuf::OneofDescriptor" = type { %"class.google::protobuf::internal::SymbolBase", i32, ptr, ptr, ptr, ptr }

@.str.130 = private unnamed_addr constant [139 x i8] c"generated/home/dtcxzyw/WorkSpace/Projects/compilers/llvm-opt-benchmark/bench/opencv/opencv/3rdparty/protobuf/src/google/protobuf/message.h\00", align 1
@.str.131 = private unnamed_addr constant [50 x i8] c"CHECK failed: !oneof_descriptor->is_synthetic(): \00", align 1

; Function Attrs: mustprogress nounwind uwtable
define linkonce_odr hidden noundef ptr @_ZN6google8protobuf8internal23GetConstPointerAtOffsetIjEEPKT_PKNS0_7MessageEj(ptr noundef %0, i32 noundef %1) #10 comdat {
  %3 = alloca ptr, align 8
  %4 = alloca i32, align 4
  store ptr %0, ptr %3, align 8, !tbaa !38
  store i32 %1, ptr %4, align 4, !tbaa !14
  %5 = load ptr, ptr %3, align 8, !tbaa !38
  %6 = load i32, ptr %4, align 4, !tbaa !14
  %7 = zext i32 %6 to i64
  %8 = getelementptr inbounds nuw i8, ptr %5, i64 %7
  ret ptr %8
}

; Function Attrs: inlinehint mustprogress nounwind uwtable
define linkonce_odr hidden noundef i32 @_ZNK6google8protobuf15OneofDescriptor5indexEv(ptr noundef nonnull align 8 dereferenceable(40) %0) #6 comdat align 2 {
  %2 = alloca ptr, align 8
  store ptr %0, ptr %2, align 8, !tbaa !171
  %3 = load ptr, ptr %2, align 8
  %4 = getelementptr inbounds nuw %"class.google::protobuf::OneofDescriptor", ptr %3, i32 0, i32 3
  %5 = load ptr, ptr %4, align 8, !tbaa !237
  %6 = getelementptr inbounds nuw %"class.google::protobuf::Descriptor", ptr %5, i32 0, i32 9
  %7 = load ptr, ptr %6, align 8, !tbaa !184
  %8 = ptrtoint ptr %3 to i64
  %9 = ptrtoint ptr %7 to i64
  %10 = sub i64 %8, %9
  %11 = sdiv exact i64 %10, 40
  %12 = trunc i64 %11 to i32
  ret i32 %12
}

; Function Attrs: mustprogress uwtable
define linkonce_odr hidden noundef nonnull align 4 dereferenceable(4) ptr @_ZN6google8protobuf8internal19GetConstRefAtOffsetIjEERKT_RKNS0_7MessageEj(ptr noundef nonnull align 8 dereferenceable(16) %0, i32 noundef %1) #4 comdat {
  %3 = alloca ptr, align 8
  %4 = alloca i32, align 4
  store ptr %0, ptr %3, align 8, !tbaa !38
  store i32 %1, ptr %4, align 4, !tbaa !14
  %5 = load ptr, ptr %3, align 8, !tbaa !38
  %6 = load i32, ptr %4, align 4, !tbaa !14
  %7 = call noundef ptr @_ZN6google8protobuf8internal23GetConstPointerAtOffsetIjEEPKT_PKNS0_7MessageEj(ptr noundef %5, i32 noundef %6)
  ret ptr %7
}

; Function Attrs: mustprogress nounwind uwtable
define linkonce_odr hidden noundef i32 @_ZNK6google8protobuf8internal16ReflectionSchema18GetOneofCaseOffsetEPKNS0_15OneofDescriptorE(ptr noundef nonnull align 8 dereferenceable(64) %0, ptr noundef %1) #10 comdat align 2 {
  %3 = alloca ptr, align 8
  %4 = alloca ptr, align 8
  store ptr %0, ptr %3, align 8, !tbaa !27
  store ptr %1, ptr %4, align 8, !tbaa !171
  %5 = load ptr, ptr %3, align 8
  %6 = getelementptr inbounds nuw %"struct.google::protobuf::internal::ReflectionSchema", ptr %5, i32 0, i32 6
  %7 = load i32, ptr %6, align 4, !tbaa !376
  %8 = load ptr, ptr %4, align 8, !tbaa !171
  %9 = call noundef i32 @_ZNK6google8protobuf15OneofDescriptor5indexEv(ptr noundef nonnull align 8 dereferenceable(40) %8)
  %10 = sext i32 %9 to i64
  %11 = mul i64 %10, 4
  %12 = trunc i64 %11 to i32
  %13 = add i32 %7, %12
  ret i32 %13
}

; Function Attrs: inlinehint mustprogress nounwind uwtable
define linkonce_odr hidden noundef i32 @_ZNK6google8protobuf15OneofDescriptor11field_countEv(ptr noundef nonnull align 8 dereferenceable(40) %0) #6 comdat align 2 {
  %2 = alloca ptr, align 8
  store ptr %0, ptr %2, align 8, !tbaa !171
  %3 = load ptr, ptr %2, align 8
  %4 = getelementptr inbounds nuw %"class.google::protobuf::OneofDescriptor", ptr %3, i32 0, i32 1
  %5 = load i32, ptr %4, align 4, !tbaa !359
  ret i32 %5
}

; Function Attrs: inlinehint mustprogress uwtable
define linkonce_odr hidden noundef i32 @_ZNK6google8protobuf10Reflection12GetOneofCaseERKNS0_7MessageEPKNS0_15OneofDescriptorE(ptr noundef nonnull align 8 dereferenceable(96) %0, ptr noundef nonnull align 8 dereferenceable(16) %1, ptr noundef %2) #7 comdat align 2 personality ptr @__gxx_personality_v0 {
  %4 = alloca ptr, align 8
  %5 = alloca ptr, align 8
  %6 = alloca ptr, align 8
  %7 = alloca %"class.google::protobuf::internal::LogMessage", align 8
  %8 = alloca i1, align 1
  %9 = alloca i1, align 1
  %10 = alloca ptr, align 8
  %11 = alloca i32, align 4
  %12 = alloca %"class.google::protobuf::internal::LogFinisher", align 1
  store ptr %0, ptr %4, align 8, !tbaa !23
  store ptr %1, ptr %5, align 8, !tbaa !38
  store ptr %2, ptr %6, align 8, !tbaa !171
  %13 = load ptr, ptr %4, align 8
  br label %14

14:                                               ; preds = %29, %3
  br i1 false, label %15, label %45

15:                                               ; preds = %14
  %16 = load ptr, ptr %6, align 8, !tbaa !171
  %17 = call noundef zeroext i1 @_ZNK6google8protobuf15OneofDescriptor12is_syntheticEv(ptr noundef nonnull align 8 dereferenceable(40) %16)
  store i1 false, ptr %8, align 1
  store i1 false, ptr %9, align 1
  call void @llvm.lifetime.start.p0(i64 1, ptr %12) #3
  br i1 %17, label %19, label %18

18:                                               ; preds = %15
  br label %23

19:                                               ; preds = %15
  call void @llvm.lifetime.start.p0(i64 56, ptr %7) #3
  store i1 true, ptr %8, align 1
  call void @_ZN6google8protobuf8internal10LogMessageC1ENS0_8LogLevelEPKci(ptr noundef nonnull align 8 dereferenceable(56) %7, i32 noundef 3, ptr noundef @.str.130, i32 noundef 1463)
  store i1 true, ptr %9, align 1
  %20 = invoke noundef nonnull align 8 dereferenceable(56) ptr @_ZN6google8protobuf8internal10LogMessagelsEPKc(ptr noundef nonnull align 8 dereferenceable(56) %7, ptr noundef @.str.131)
          to label %21 unwind label %30

21:                                               ; preds = %19
  invoke void @_ZN6google8protobuf8internal11LogFinisheraSERNS1_10LogMessageE(ptr noundef nonnull align 1 dereferenceable(1) %12, ptr noundef nonnull align 8 dereferenceable(56) %20)
          to label %22 unwind label %34

22:                                               ; preds = %21
  br label %23

23:                                               ; preds = %22, %18
  call void @llvm.lifetime.end.p0(i64 1, ptr %12) #3
  %24 = load i1, ptr %9, align 1
  br i1 %24, label %25, label %26

25:                                               ; preds = %23
  call void @_ZN6google8protobuf8internal10LogMessageD1Ev(ptr noundef nonnull align 8 dereferenceable(56) %7) #3
  br label %26

26:                                               ; preds = %25, %23
  %27 = load i1, ptr %8, align 1
  br i1 %27, label %28, label %29

28:                                               ; preds = %26
  call void @llvm.lifetime.end.p0(i64 56, ptr %7) #3
  br label %29

29:                                               ; preds = %28, %26
  br label %14, !llvm.loop !260

30:                                               ; preds = %19
  %31 = landingpad { ptr, i32 }
          cleanup
  %32 = extractvalue { ptr, i32 } %31, 0
  store ptr %32, ptr %10, align 8
  %33 = extractvalue { ptr, i32 } %31, 1
  store i32 %33, ptr %11, align 4
  br label %38

34:                                               ; preds = %21
  %35 = landingpad { ptr, i32 }
          cleanup
  %36 = extractvalue { ptr, i32 } %35, 0
  store ptr %36, ptr %10, align 8
  %37 = extractvalue { ptr, i32 } %35, 1
  store i32 %37, ptr %11, align 4
  call void @llvm.lifetime.end.p0(i64 1, ptr %12) #3
  br label %38

38:                                               ; preds = %34, %30
  %39 = load i1, ptr %9, align 1
  br i1 %39, label %40, label %41

40:                                               ; preds = %38
  call void @_ZN6google8protobuf8internal10LogMessageD1Ev(ptr noundef nonnull align 8 dereferenceable(56) %7) #3
  br label %41

41:                                               ; preds = %40, %38
  %42 = load i1, ptr %8, align 1
  br i1 %42, label %43, label %44

43:                                               ; preds = %41
  call void @llvm.lifetime.end.p0(i64 56, ptr %7) #3
  br label %44

44:                                               ; preds = %43, %41
  br label %52

45:                                               ; preds = %14
  %46 = load ptr, ptr %5, align 8, !tbaa !38
  %47 = getelementptr inbounds nuw %"class.google::protobuf::Reflection", ptr %13, i32 0, i32 1
  %48 = load ptr, ptr %6, align 8, !tbaa !171
  %49 = call noundef i32 @_ZNK6google8protobuf8internal16ReflectionSchema18GetOneofCaseOffsetEPKNS0_15OneofDescriptorE(ptr noundef nonnull align 8 dereferenceable(64) %47, ptr noundef %48)
  %50 = call noundef nonnull align 4 dereferenceable(4) ptr @_ZN6google8protobuf8internal19GetConstRefAtOffsetIjEERKT_RKNS0_7MessageEj(ptr noundef nonnull align 8 dereferenceable(16) %46, i32 noundef %49)
  %51 = load i32, ptr %50, align 4, !tbaa !14
  ret i32 %51

52:                                               ; preds = %44
  %53 = load ptr, ptr %10, align 8
  %54 = load i32, ptr %11, align 4
  %55 = insertvalue { ptr, i32 } poison, ptr %53, 0
  %56 = insertvalue { ptr, i32 } %55, i32 %54, 1
  resume { ptr, i32 } %56
}

; Function Attrs: inlinehint mustprogress nounwind uwtable
define linkonce_odr hidden noundef ptr @_ZNK6google8protobuf15OneofDescriptor5fieldEi(ptr noundef nonnull align 8 dereferenceable(40) %0, i32 noundef %1) #6 comdat align 2 {
  %3 = alloca ptr, align 8
  %4 = alloca i32, align 4
  store ptr %0, ptr %3, align 8, !tbaa !171
  store i32 %1, ptr %4, align 4, !tbaa !14
  %5 = load ptr, ptr %3, align 8
  %6 = getelementptr inbounds nuw %"class.google::protobuf::OneofDescriptor", ptr %5, i32 0, i32 5
  %7 = load ptr, ptr %6, align 8, !tbaa !259
  %8 = load i32, ptr %4, align 4, !tbaa !14
  %9 = sext i32 %8 to i64
  %10 = getelementptr inbounds %"class.google::protobuf::FieldDescriptor", ptr %7, i64 %9
  ret ptr %10
}

; Function Attrs: inlinehint mustprogress uwtable
define linkonce_odr hidden noundef zeroext i1 @_ZNK6google8protobuf15OneofDescriptor12is_syntheticEv(ptr noundef nonnull align 8 dereferenceable(40) %0) #7 comdat align 2 {
  %2 = alloca ptr, align 8
  store ptr %0, ptr %2, align 8, !tbaa !171
  %3 = load ptr, ptr %2, align 8
  %4 = call noundef i32 @_ZNK6google8protobuf15OneofDescriptor11field_countEv(ptr noundef nonnull align 8 dereferenceable(40) %3)
  %5 = icmp eq i32 %4, 1
  br i1 %5, label %6, label %13

6:                                                ; preds = %1
  %7 = call noundef ptr @_ZNK6google8protobuf15OneofDescriptor5fieldEi(ptr noundef nonnull align 8 dereferenceable(40) %3, i32 noundef 0)
  %8 = getelementptr inbounds nuw %"class.google::protobuf::FieldDescriptor", ptr %7, i32 0, i32 1
  %9 = load i8, ptr %8, align 1
  %10 = lshr i8 %9, 1
  %11 = and i8 %10, 1
  %12 = trunc i8 %11 to i1
  br label %13

13:                                               ; preds = %6, %1
  %14 = phi i1 [ false, %1 ], [ %12, %6 ]
  ret i1 %14
}

; Function Attrs: mustprogress uwtable
define hidden noundef ptr @_ZNK6google8protobuf10Reflection23GetOneofFieldDescriptorERKNS0_7MessageEPKNS0_15OneofDescriptorE(ptr noundef nonnull align 8 dereferenceable(96) %0, ptr noundef nonnull align 8 dereferenceable(16) %1, ptr noundef %2) #4 align 2 {
  %4 = alloca ptr, align 8
  %5 = alloca ptr, align 8
  %6 = alloca ptr, align 8
  %7 = alloca ptr, align 8
  %8 = alloca ptr, align 8
  %9 = alloca i32, align 4
  %10 = alloca i32, align 4
  store ptr %0, ptr %5, align 8, !tbaa !23
  store ptr %1, ptr %6, align 8, !tbaa !38
  store ptr %2, ptr %7, align 8, !tbaa !171
  %11 = load ptr, ptr %5, align 8
  %12 = load ptr, ptr %7, align 8, !tbaa !171
  %13 = call noundef zeroext i1 @_ZNK6google8protobuf15OneofDescriptor12is_syntheticEv(ptr noundef nonnull align 8 dereferenceable(40) %12)
  br i1 %13, label %14, label %25

14:                                               ; preds = %3
  call void @llvm.lifetime.start.p0(i64 8, ptr %8) #3
  %15 = load ptr, ptr %7, align 8, !tbaa !171
  %16 = call noundef ptr @_ZNK6google8protobuf15OneofDescriptor5fieldEi(ptr noundef nonnull align 8 dereferenceable(40) %15, i32 noundef 0)
  store ptr %16, ptr %8, align 8, !tbaa !57
  %17 = load ptr, ptr %6, align 8, !tbaa !38
  %18 = load ptr, ptr %8, align 8, !tbaa !57
  %19 = call noundef zeroext i1 @_ZNK6google8protobuf10Reflection8HasFieldERKNS0_7MessageEPKNS0_15FieldDescriptorE(ptr noundef nonnull align 8 dereferenceable(96) %11, ptr noundef nonnull align 8 dereferenceable(16) %17, ptr noundef %18)
  br i1 %19, label %20, label %22

20:                                               ; preds = %14
  %21 = load ptr, ptr %8, align 8, !tbaa !57
  br label %23

22:                                               ; preds = %14
  br label %23

23:                                               ; preds = %22, %20
  %24 = phi ptr [ %21, %20 ], [ null, %22 ]
  store ptr %24, ptr %4, align 8
  call void @llvm.lifetime.end.p0(i64 8, ptr %8) #3
  br label %38

25:                                               ; preds = %3
  call void @llvm.lifetime.start.p0(i64 4, ptr %9) #3
  %26 = load ptr, ptr %6, align 8, !tbaa !38
  %27 = load ptr, ptr %7, align 8, !tbaa !171
  %28 = call noundef i32 @_ZNK6google8protobuf10Reflection12GetOneofCaseERKNS0_7MessageEPKNS0_15OneofDescriptorE(ptr noundef nonnull align 8 dereferenceable(96) %11, ptr noundef nonnull align 8 dereferenceable(16) %26, ptr noundef %27)
  store i32 %28, ptr %9, align 4, !tbaa !14
  %29 = load i32, ptr %9, align 4, !tbaa !14
  %30 = icmp eq i32 %29, 0
  br i1 %30, label %31, label %32

31:                                               ; preds = %25
  store ptr null, ptr %4, align 8
  store i32 1, ptr %10, align 4
  br label %37

32:                                               ; preds = %25
  %33 = getelementptr inbounds nuw %"class.google::protobuf::Reflection", ptr %11, i32 0, i32 0
  %34 = load ptr, ptr %33, align 8, !tbaa !33
  %35 = load i32, ptr %9, align 4, !tbaa !14
  %36 = call noundef ptr @_ZNK6google8protobuf10Descriptor17FindFieldByNumberEi(ptr noundef nonnull align 8 dereferenceable(136) %34, i32 noundef %35)
  store ptr %36, ptr %4, align 8
  store i32 1, ptr %10, align 4
  br label %37

37:                                               ; preds = %32, %31
  call void @llvm.lifetime.end.p0(i64 4, ptr %9) #3
  br label %38

38:                                               ; preds = %37, %23
  %39 = load ptr, ptr %4, align 8
  ret ptr %39
}