; Function Attrs: mustprogress uwtable
define hidden noundef ptr @_ZNK6google8protobuf10Reflection23GetOneofFieldDescriptorERKNS0_7MessageEPKNS0_15OneofDescriptorE(ptr noundef nonnull align 8 dereferenceable(96) %0, ptr noundef nonnull align 8 dereferenceable(16) %1, ptr noundef %2) local_unnamed_addr #3 align 2 personality ptr @__gxx_personality_v0 {
  %4 = getelementptr inbounds nuw i8, ptr %2, i64 4
  %5 = load i32, ptr %4, align 4, !tbaa !104
  %6 = icmp eq i32 %5, 1
  br i1 %6, label %_ZNK6google8protobuf15OneofDescriptor12is_syntheticEv.exit, label %_ZNK6google8protobuf15OneofDescriptor12is_syntheticEv.exit.thread

_ZNK6google8protobuf15OneofDescriptor12is_syntheticEv.exit: ; preds = %3
  %7 = getelementptr inbounds nuw i8, ptr %2, i64 32
  %8 = load ptr, ptr %7, align 8, !tbaa !107
  %9 = getelementptr inbounds nuw i8, ptr %8, i64 1
  %10 = load i8, ptr %9, align 1
  %11 = and i8 %10, 2
  %.not = icmp eq i8 %11, 0
  br i1 %.not, label %_ZNK6google8protobuf15OneofDescriptor12is_syntheticEv.exit.thread, label %12

12:                                               ; preds = %_ZNK6google8protobuf15OneofDescriptor12is_syntheticEv.exit
  %13 = tail call noundef zeroext i1 @_ZNK6google8protobuf10Reflection8HasFieldERKNS0_7MessageEPKNS0_15FieldDescriptorE(ptr noundef nonnull align 8 dereferenceable(96) %0, ptr noundef nonnull align 8 dereferenceable(16) %1, ptr noundef nonnull %8)
  %14 = select i1 %13, ptr %8, ptr null
  br label %35

_ZNK6google8protobuf15OneofDescriptor12is_syntheticEv.exit.thread: ; preds = %3, %_ZNK6google8protobuf15OneofDescriptor12is_syntheticEv.exit
  %15 = getelementptr inbounds nuw i8, ptr %0, i64 44
  %16 = load i32, ptr %15, align 4, !tbaa !108
  %17 = getelementptr inbounds nuw i8, ptr %2, i64 16
  %18 = load ptr, ptr %17, align 8, !tbaa !109
  %19 = getelementptr inbounds nuw i8, ptr %18, i64 48
  %20 = load ptr, ptr %19, align 8, !tbaa !110
  %21 = ptrtoint ptr %2 to i64
  %22 = ptrtoint ptr %20 to i64
  %23 = sub i64 %21, %22
  %24 = sdiv exact i64 %23, 40
  %25 = trunc i64 %24 to i32
  %26 = shl i32 %25, 2
  %27 = add i32 %26, %16
  %28 = zext i32 %27 to i64
  %29 = getelementptr inbounds nuw i8, ptr %1, i64 %28
  %30 = load i32, ptr %29, align 4, !tbaa !15
  %31 = icmp eq i32 %30, 0
  br i1 %31, label %35, label %32

32:                                               ; preds = %_ZNK6google8protobuf15OneofDescriptor12is_syntheticEv.exit.thread
  %33 = load ptr, ptr %0, align 8, !tbaa !18
  %34 = tail call noundef ptr @_ZNK6google8protobuf10Descriptor17FindFieldByNumberEi(ptr noundef nonnull align 8 dereferenceable(136) %33, i32 noundef %30)
  br label %35

35:                                               ; preds = %32, %_ZNK6google8protobuf15OneofDescriptor12is_syntheticEv.exit.thread, %12
  %.0 = phi ptr [ %14, %12 ], [ %34, %32 ], [ null, %_ZNK6google8protobuf15OneofDescriptor12is_syntheticEv.exit.thread ]
  ret ptr %.0
}